target datalayout = "e-m:e-p270:32:32-p271:32:32-p272:64:64-i64:64-i128:128-f80:128-n8:16:32:64-S128"
target triple = "x86_64-pc-linux-gnu"

%struct.H5FL_fac_head_t = type { i8, i32, i32, i64, ptr, ptr }

@H5FL_init_g = global i8 0, align 1
@H5_libterm_g = external global i8, align 1
@.str.2 = private unnamed_addr constant [98 x i8] c"generated/home/dtcxzyw/WorkSpace/Projects/compilers/llvm-opt-benchmark/bench/hdf5/hdf5/src/H5FL.c\00", align 1
@H5E_RESOURCE_g = external global i64, align 8
@H5E_NOSPACE_g = external global i64, align 8
@.str.5 = private unnamed_addr constant [25 x i8] c"memory allocation failed\00", align 1
@__func__.H5FL_fac_calloc = private unnamed_addr constant [16 x i8] c"H5FL_fac_calloc\00", align 1

; Function Attrs: nounwind uwtable
define noalias ptr @H5FL_fac_calloc(ptr noundef %0) #0 {
  %2 = alloca ptr, align 8
  %3 = alloca ptr, align 8
  %4 = alloca i8, align 1
  store ptr %0, ptr %2, align 8, !tbaa !122
  call void @llvm.lifetime.start.p0(i64 8, ptr %3) #9
  store ptr null, ptr %3, align 8, !tbaa !69
  call void @llvm.lifetime.start.p0(i64 1, ptr %4) #9
  store i8 0, ptr %4, align 1, !tbaa !7
  %5 = load i8, ptr @H5FL_init_g, align 1, !tbaa !7, !range !9, !noundef !10
  %6 = trunc i8 %5 to i1
  br i1 %6, label %11, label %7

7:                                                ; preds = %1
  %8 = load i8, ptr @H5_libterm_g, align 1, !tbaa !7, !range !9, !noundef !10
  %9 = trunc i8 %8 to i1
  %10 = xor i1 %9, true
  br label %11

11:                                               ; preds = %7, %1
  %12 = phi i1 [ true, %1 ], [ %10, %7 ]
  %13 = xor i1 %12, true
  %14 = xor i1 %13, true
  %15 = zext i1 %14 to i32
  %16 = sext i32 %15 to i64
  %17 = call i64 @llvm.expect.i64(i64 %16, i64 1)
  %18 = icmp ne i64 %17, 0
  br i1 %18, label %19, label %48

19:                                               ; preds = %11
  %20 = load ptr, ptr %2, align 8, !tbaa !122
  %21 = call noalias ptr @H5FL_fac_malloc(ptr noundef %20)
  store ptr %21, ptr %3, align 8, !tbaa !69
  %22 = icmp eq ptr null, %21
  br i1 %22, label %23, label %42

23:                                               ; preds = %19
  br label %24

24:                                               ; preds = %23
  br label %25

25:                                               ; preds = %24
  br label %26

26:                                               ; preds = %25
  %27 = load i64, ptr @H5E_RESOURCE_g, align 8, !tbaa !11
  %28 = load i64, ptr @H5E_NOSPACE_g, align 8, !tbaa !11
  %29 = call i32 (ptr, ptr, i32, i64, i64, ptr, ...) @H5E_printf_stack(ptr noundef @.str.2, ptr noundef @__func__.H5FL_fac_calloc, i32 noundef 1874, i64 noundef %27, i64 noundef %28, ptr noundef @.str.5)
  br label %30

30:                                               ; preds = %26
  br label %31

31:                                               ; preds = %30
  store i8 1, ptr %4, align 1, !tbaa !7
  %32 = load i8, ptr %4, align 1, !tbaa !7, !range !9, !noundef !10
  %33 = trunc i8 %32 to i1
  %34 = zext i1 %33 to i8
  store i8 %34, ptr %4, align 1, !tbaa !7
  br label %35

35:                                               ; preds = %31
  br label %36

36:                                               ; preds = %35
  br label %37

37:                                               ; preds = %36
  store ptr null, ptr %3, align 8, !tbaa !69
  br label %47

38:                                               ; No predecessors!
  br label %39

39:                                               ; preds = %38
  br label %40

40:                                               ; preds = %39
  br label %41

41:                                               ; preds = %40
  br label %42

42:                                               ; preds = %41, %19
  %43 = load ptr, ptr %3, align 8, !tbaa !69
  %44 = load ptr, ptr %2, align 8, !tbaa !122
  %45 = getelementptr inbounds nuw %struct.H5FL_fac_head_t, ptr %44, i32 0, i32 3
  %46 = load i64, ptr %45, align 8, !tbaa !123
  call void @llvm.memset.p0.i64(ptr align 1 %43, i8 0, i64 %46, i1 false)
  br label %47

47:                                               ; preds = %42, %37
  br label %48

48:                                               ; preds = %47, %11
  %49 = load ptr, ptr %3, align 8, !tbaa !69
  call void @llvm.lifetime.end.p0(i64 1, ptr %4) #9
  call void @llvm.lifetime.end.p0(i64 8, ptr %3) #9
  ret ptr %49
}