; Function Attrs: nounwind uwtable
define noalias ptr @H5FL_fac_calloc(ptr noundef captures(none) %0) local_unnamed_addr #0 {
  %2 = load i8, ptr @H5FL_init_g, align 1, !tbaa !3, !range !7, !noundef !8
  %3 = trunc nuw i8 %2 to i1
  %4 = load i8, ptr @H5_libterm_g, align 1, !range !7
  %5 = trunc nuw i8 %4 to i1
  %6 = xor i1 %5, true
  %7 = select i1 %3, i1 true, i1 %6
  br i1 %7, label %8, label %18, !prof !15

8:                                                ; preds = %1
  %9 = tail call noalias ptr @H5FL_fac_malloc(ptr noundef %0)
  %10 = icmp eq ptr %9, null
  br i1 %10, label %11, label %15

11:                                               ; preds = %8
  %12 = load i64, ptr @H5E_RESOURCE_g, align 8, !tbaa !86
  %13 = load i64, ptr @H5E_NOSPACE_g, align 8, !tbaa !86
  %14 = tail call i32 (ptr, ptr, i32, i64, i64, ptr, ...) @H5E_printf_stack(ptr noundef nonnull @.str.2, ptr noundef nonnull @__func__.H5FL_fac_calloc, i32 noundef 1874, i64 noundef %12, i64 noundef %13, ptr noundef nonnull @.str.5) #10
  br label %18

15:                                               ; preds = %8
  %16 = getelementptr inbounds nuw i8, ptr %0, i64 16
  %17 = load i64, ptr %16, align 8, !tbaa !82
  tail call void @llvm.memset.p0.i64(ptr nonnull align 1 %9, i8 0, i64 %17, i1 false)
  br label %18

18:                                               ; preds = %11, %15, %1
  %.0 = phi ptr [ null, %11 ], [ %9, %15 ], [ null, %1 ]
  ret ptr %.0
}